target datalayout = "e-m:e-p270:32:32-p271:32:32-p272:64:64-i64:64-i128:128-f80:128-n8:16:32:64-S128"
target triple = "x86_64-pc-linux-gnu"

%struct.k12_t = type { i32, i32, ptr, ptr, ptr, i32, ptr, i32, %struct.Buffer }
%struct.Buffer = type { ptr, i64, i64, i64 }
%union.k12_input_info_t = type { i32, [4 x i8] }
%struct.wtap_rec = type { i32, i32, i32, %struct.nstime_t, i32, %struct.nstime_t, i8, %union.anon, ptr, i8, %struct.Buffer, %struct.Buffer }
%struct.nstime_t = type { i64, i32 }
%union.anon = type { %struct.wtap_packet_header }
%struct.wtap_packet_header = type { i32, i32, i32, i32, %union.wtap_pseudo_header }
%union.wtap_pseudo_header = type { %struct.erf_mc_phdr }
%struct.erf_mc_phdr = type { %struct.erf_phdr, [16 x %struct.erf_ehdr], %union.anon.1 }
%struct.erf_phdr = type { i64, i8, i8, i16, i16, i16 }
%struct.erf_ehdr = type { i64 }
%union.anon.1 = type { i32 }
%struct.k12_phdr = type { i32, ptr, ptr, i32, %union.k12_input_info_t, ptr, i32, ptr }
%struct.wtap_dumper = type { ptr, i32, i32, i32, i32, i8, i64, ptr, ptr, ptr, ptr, ptr, ptr, ptr, ptr, ptr, ptr, ptr, ptr, ptr, i32, i32, i32 }
%struct.k12_dump_t = type { i32, i32, i32 }
%union.anon.3 = type { %struct.anon.4, [32 x i8] }
%struct.anon.4 = type { i32, i32, i32, i32, i32, i32, i64, [8128 x i8] }

; Function Attrs: alwaysinline nounwind
define internal ptr @memcpy.inline(ptr noalias %0, ptr noalias %1, i64 %2) #11 {
  %4 = alloca ptr, align 8
  %5 = alloca ptr, align 8
  %6 = alloca i64, align 8
  store ptr %0, ptr %4, align 8
  store ptr %1, ptr %5, align 8
  store i64 %2, ptr %6, align 8
  %7 = load ptr, ptr %4, align 8
  %8 = load ptr, ptr %5, align 8
  %9 = load i64, ptr %6, align 8
  %10 = load ptr, ptr %4, align 8
  %11 = call i64 @llvm.objectsize.i64.p0(ptr %10, i1 false, i1 true, i1 true)
  %12 = call ptr @__memcpy_chk(ptr noundef %7, ptr noundef %8, i64 noundef %9, i64 noundef %11) #14
  ret ptr %12
}

; Function Attrs: null_pointer_is_valid sspstrong uwtable
define internal zeroext i1 @k12_dump(ptr noundef %0, ptr noundef %1, ptr noundef %2, ptr noundef %3, ptr noundef %4) #0 {
  %6 = alloca i1, align 1
  %7 = alloca ptr, align 8
  %8 = alloca ptr, align 8
  %9 = alloca ptr, align 8
  %10 = alloca ptr, align 8
  %11 = alloca ptr, align 8
  %12 = alloca ptr, align 8
  %13 = alloca ptr, align 8
  %14 = alloca i32, align 4
  %15 = alloca %union.anon.3, align 8
  %16 = alloca i32, align 4
  %17 = alloca ptr, align 8
  %18 = alloca i32, align 4
  %19 = alloca i32, align 4
  %20 = alloca i32, align 4
  %21 = alloca i32, align 4
  %22 = alloca i32, align 4
  %23 = alloca i32, align 4
  %24 = alloca i32, align 4
  %25 = alloca i32, align 4
  %26 = alloca i32, align 4
  %27 = alloca i32, align 4
  %28 = alloca i32, align 4
  %29 = alloca i32, align 4
  %30 = alloca i64, align 8
  %31 = alloca i64, align 8
  %32 = alloca i64, align 8
  store ptr %0, ptr %7, align 8
  store ptr %1, ptr %8, align 8
  store ptr %2, ptr %9, align 8
  store ptr %3, ptr %10, align 8
  store ptr %4, ptr %11, align 8
  call void @llvm.lifetime.start.p0(i64 8, ptr %12) #14
  %33 = load ptr, ptr %8, align 8
  %34 = getelementptr inbounds nuw %struct.wtap_rec, ptr %33, i32 0, i32 7
  %35 = getelementptr inbounds nuw %struct.wtap_packet_header, ptr %34, i32 0, i32 4
  store ptr %35, ptr %12, align 8
  call void @llvm.lifetime.start.p0(i64 8, ptr %13) #14
  %36 = load ptr, ptr %7, align 8
  %37 = getelementptr inbounds nuw %struct.wtap_dumper, ptr %36, i32 0, i32 7
  %38 = load ptr, ptr %37, align 8
  store ptr %38, ptr %13, align 8
  call void @llvm.lifetime.start.p0(i64 4, ptr %14) #14
  call void @llvm.lifetime.start.p0(i64 8192, ptr %15) #14
  %39 = load ptr, ptr %8, align 8
  %40 = getelementptr inbounds nuw %struct.wtap_rec, ptr %39, i32 0, i32 0
  %41 = load i32, ptr %40, align 8
  %42 = icmp ne i32 %41, 0
  br i1 %42, label %43, label %45

43:                                               ; preds = %5
  %44 = load ptr, ptr %10, align 8
  store i32 -24, ptr %44, align 4
  store i1 false, ptr %6, align 1
  store i32 1, ptr %16, align 4
  br label %271

45:                                               ; preds = %5
  %46 = load ptr, ptr %7, align 8
  %47 = getelementptr inbounds nuw %struct.wtap_dumper, ptr %46, i32 0, i32 3
  %48 = load i32, ptr %47, align 8
  %49 = load ptr, ptr %8, align 8
  %50 = getelementptr inbounds nuw %struct.wtap_rec, ptr %49, i32 0, i32 7
  %51 = getelementptr inbounds nuw %struct.wtap_packet_header, ptr %50, i32 0, i32 2
  %52 = load i32, ptr %51, align 8
  %53 = icmp ne i32 %48, %52
  br i1 %53, label %54, label %56

54:                                               ; preds = %45
  %55 = load ptr, ptr %10, align 8
  store i32 -9, ptr %55, align 4
  store i1 false, ptr %6, align 1
  store i32 1, ptr %16, align 4
  br label %271

56:                                               ; preds = %45
  %57 = load ptr, ptr %13, align 8
  %58 = getelementptr inbounds nuw %struct.k12_dump_t, ptr %57, i32 0, i32 1
  %59 = load i32, ptr %58, align 4
  %60 = icmp eq i32 %59, 0
  br i1 %60, label %61, label %69

61:                                               ; preds = %56
  call void @llvm.lifetime.start.p0(i64 8, ptr %17) #14
  %62 = load ptr, ptr %12, align 8
  %63 = getelementptr inbounds nuw %struct.k12_phdr, ptr %62, i32 0, i32 7
  %64 = load ptr, ptr %63, align 8
  store ptr %64, ptr %17, align 8
  %65 = load ptr, ptr %17, align 8
  %66 = getelementptr inbounds nuw %struct.k12_t, ptr %65, i32 0, i32 2
  %67 = load ptr, ptr %66, align 8
  %68 = load ptr, ptr %7, align 8
  call void @g_hash_table_foreach(ptr noundef %67, ptr noundef @k12_dump_src_setting, ptr noundef %68)
  call void @llvm.lifetime.end.p0(i64 8, ptr %17) #14
  br label %69

69:                                               ; preds = %61, %56
  %70 = load ptr, ptr %8, align 8
  %71 = getelementptr inbounds nuw %struct.wtap_rec, ptr %70, i32 0, i32 7
  %72 = getelementptr inbounds nuw %struct.wtap_packet_header, ptr %71, i32 0, i32 0
  %73 = load i32, ptr %72, align 8
  %74 = add i32 32, %73
  %75 = getelementptr inbounds nuw %struct.anon.4, ptr %15, i32 0, i32 0
  store i32 %74, ptr %75, align 8
  %76 = getelementptr inbounds nuw %struct.anon.4, ptr %15, i32 0, i32 0
  %77 = load i32, ptr %76, align 8
  %78 = urem i32 %77, 4
  %79 = icmp ne i32 %78, 0
  br i1 %79, label %80, label %85

80:                                               ; preds = %69
  %81 = getelementptr inbounds nuw %struct.anon.4, ptr %15, i32 0, i32 0
  %82 = load i32, ptr %81, align 8
  %83 = urem i32 %82, 4
  %84 = sub i32 4, %83
  br label %86

85:                                               ; preds = %69
  br label %86

86:                                               ; preds = %85, %80
  %87 = phi i32 [ %84, %80 ], [ 0, %85 ]
  %88 = getelementptr inbounds nuw %struct.anon.4, ptr %15, i32 0, i32 0
  %89 = load i32, ptr %88, align 8
  %90 = add i32 %89, %87
  store i32 %90, ptr %88, align 8
  %91 = getelementptr inbounds nuw %struct.anon.4, ptr %15, i32 0, i32 0
  %92 = load i32, ptr %91, align 8
  store i32 %92, ptr %14, align 4
  call void @llvm.lifetime.start.p0(i64 4, ptr %18) #14
  call void @llvm.lifetime.start.p0(i64 4, ptr %19) #14
  %93 = getelementptr inbounds nuw %struct.anon.4, ptr %15, i32 0, i32 0
  %94 = load i32, ptr %93, align 8
  store i32 %94, ptr %19, align 4
  %95 = load i32, ptr %19, align 4
  %96 = call i1 @llvm.is.constant.i32(i32 %95)
  br i1 %96, label %97, label %113

97:                                               ; preds = %86
  %98 = load i32, ptr %19, align 4
  %99 = and i32 %98, 255
  %100 = shl i32 %99, 24
  %101 = load i32, ptr %19, align 4
  %102 = and i32 %101, 65280
  %103 = shl i32 %102, 8
  %104 = or i32 %100, %103
  %105 = load i32, ptr %19, align 4
  %106 = and i32 %105, 16711680
  %107 = lshr i32 %106, 8
  %108 = or i32 %104, %107
  %109 = load i32, ptr %19, align 4
  %110 = and i32 %109, -16777216
  %111 = lshr i32 %110, 24
  %112 = or i32 %108, %111
  store i32 %112, ptr %18, align 4
  br label %116

113:                                              ; preds = %86
  %114 = load i32, ptr %19, align 4
  %115 = call i32 asm "bswapl $0", "=r,0,~{dirflag},~{fpsr},~{flags}"(i32 %114) #19, !srcloc !14
  store i32 %115, ptr %18, align 4
  br label %116

116:                                              ; preds = %113, %97
  %117 = load i32, ptr %18, align 4
  store i32 %117, ptr %20, align 4
  call void @llvm.lifetime.end.p0(i64 4, ptr %19) #14
  call void @llvm.lifetime.end.p0(i64 4, ptr %18) #14
  %118 = load i32, ptr %20, align 4
  %119 = getelementptr inbounds nuw %struct.anon.4, ptr %15, i32 0, i32 0
  store i32 %118, ptr %119, align 8
  call void @llvm.lifetime.start.p0(i64 4, ptr %21) #14
  call void @llvm.lifetime.start.p0(i64 4, ptr %22) #14
  store i32 65568, ptr %22, align 4
  %120 = load i32, ptr %22, align 4
  %121 = call i1 @llvm.is.constant.i32(i32 %120)
  br i1 %121, label %122, label %138

122:                                              ; preds = %116
  %123 = load i32, ptr %22, align 4
  %124 = and i32 %123, 255
  %125 = shl i32 %124, 24
  %126 = load i32, ptr %22, align 4
  %127 = and i32 %126, 65280
  %128 = shl i32 %127, 8
  %129 = or i32 %125, %128
  %130 = load i32, ptr %22, align 4
  %131 = and i32 %130, 16711680
  %132 = lshr i32 %131, 8
  %133 = or i32 %129, %132
  %134 = load i32, ptr %22, align 4
  %135 = and i32 %134, -16777216
  %136 = lshr i32 %135, 24
  %137 = or i32 %133, %136
  store i32 %137, ptr %21, align 4
  br label %141

138:                                              ; preds = %116
  %139 = load i32, ptr %22, align 4
  %140 = call i32 asm "bswapl $0", "=r,0,~{dirflag},~{fpsr},~{flags}"(i32 %139) #19, !srcloc !15
  store i32 %140, ptr %21, align 4
  br label %141

141:                                              ; preds = %138, %122
  %142 = load i32, ptr %21, align 4
  store i32 %142, ptr %23, align 4
  call void @llvm.lifetime.end.p0(i64 4, ptr %22) #14
  call void @llvm.lifetime.end.p0(i64 4, ptr %21) #14
  %143 = load i32, ptr %23, align 4
  %144 = getelementptr inbounds nuw %struct.anon.4, ptr %15, i32 0, i32 1
  store i32 %143, ptr %144, align 4
  call void @llvm.lifetime.start.p0(i64 4, ptr %24) #14
  call void @llvm.lifetime.start.p0(i64 4, ptr %25) #14
  %145 = load ptr, ptr %8, align 8
  %146 = getelementptr inbounds nuw %struct.wtap_rec, ptr %145, i32 0, i32 7
  %147 = getelementptr inbounds nuw %struct.wtap_packet_header, ptr %146, i32 0, i32 0
  %148 = load i32, ptr %147, align 8
  store i32 %148, ptr %25, align 4
  %149 = load i32, ptr %25, align 4
  %150 = call i1 @llvm.is.constant.i32(i32 %149)
  br i1 %150, label %151, label %167

151:                                              ; preds = %141
  %152 = load i32, ptr %25, align 4
  %153 = and i32 %152, 255
  %154 = shl i32 %153, 24
  %155 = load i32, ptr %25, align 4
  %156 = and i32 %155, 65280
  %157 = shl i32 %156, 8
  %158 = or i32 %154, %157
  %159 = load i32, ptr %25, align 4
  %160 = and i32 %159, 16711680
  %161 = lshr i32 %160, 8
  %162 = or i32 %158, %161
  %163 = load i32, ptr %25, align 4
  %164 = and i32 %163, -16777216
  %165 = lshr i32 %164, 24
  %166 = or i32 %162, %165
  store i32 %166, ptr %24, align 4
  br label %170

167:                                              ; preds = %141
  %168 = load i32, ptr %25, align 4
  %169 = call i32 asm "bswapl $0", "=r,0,~{dirflag},~{fpsr},~{flags}"(i32 %168) #19, !srcloc !16
  store i32 %169, ptr %24, align 4
  br label %170

170:                                              ; preds = %167, %151
  %171 = load i32, ptr %24, align 4
  store i32 %171, ptr %26, align 4
  call void @llvm.lifetime.end.p0(i64 4, ptr %25) #14
  call void @llvm.lifetime.end.p0(i64 4, ptr %24) #14
  %172 = load i32, ptr %26, align 4
  %173 = getelementptr inbounds nuw %struct.anon.4, ptr %15, i32 0, i32 2
  store i32 %172, ptr %173, align 8
  call void @llvm.lifetime.start.p0(i64 4, ptr %27) #14
  call void @llvm.lifetime.start.p0(i64 4, ptr %28) #14
  %174 = load ptr, ptr %12, align 8
  %175 = getelementptr inbounds nuw %struct.k12_phdr, ptr %174, i32 0, i32 0
  %176 = load i32, ptr %175, align 8
  store i32 %176, ptr %28, align 4
  %177 = load i32, ptr %28, align 4
  %178 = call i1 @llvm.is.constant.i32(i32 %177)
  br i1 %178, label %179, label %195

179:                                              ; preds = %170
  %180 = load i32, ptr %28, align 4
  %181 = and i32 %180, 255
  %182 = shl i32 %181, 24
  %183 = load i32, ptr %28, align 4
  %184 = and i32 %183, 65280
  %185 = shl i32 %184, 8
  %186 = or i32 %182, %185
  %187 = load i32, ptr %28, align 4
  %188 = and i32 %187, 16711680
  %189 = lshr i32 %188, 8
  %190 = or i32 %186, %189
  %191 = load i32, ptr %28, align 4
  %192 = and i32 %191, -16777216
  %193 = lshr i32 %192, 24
  %194 = or i32 %190, %193
  store i32 %194, ptr %27, align 4
  br label %198

195:                                              ; preds = %170
  %196 = load i32, ptr %28, align 4
  %197 = call i32 asm "bswapl $0", "=r,0,~{dirflag},~{fpsr},~{flags}"(i32 %196) #19, !srcloc !17
  store i32 %197, ptr %27, align 4
  br label %198

198:                                              ; preds = %195, %179
  %199 = load i32, ptr %27, align 4
  store i32 %199, ptr %29, align 4
  call void @llvm.lifetime.end.p0(i64 4, ptr %28) #14
  call void @llvm.lifetime.end.p0(i64 4, ptr %27) #14
  %200 = load i32, ptr %29, align 4
  %201 = getelementptr inbounds nuw %struct.anon.4, ptr %15, i32 0, i32 3
  store i32 %200, ptr %201, align 4
  call void @llvm.lifetime.start.p0(i64 8, ptr %30) #14
  call void @llvm.lifetime.start.p0(i64 8, ptr %31) #14
  %202 = load ptr, ptr %8, align 8
  %203 = getelementptr inbounds nuw %struct.wtap_rec, ptr %202, i32 0, i32 3
  %204 = getelementptr inbounds nuw %struct.nstime_t, ptr %203, i32 0, i32 0
  %205 = load i64, ptr %204, align 8
  %206 = sub i64 %205, 631152000
  %207 = mul i64 %206, 2000000
  %208 = load ptr, ptr %8, align 8
  %209 = getelementptr inbounds nuw %struct.wtap_rec, ptr %208, i32 0, i32 3
  %210 = getelementptr inbounds nuw %struct.nstime_t, ptr %209, i32 0, i32 1
  %211 = load i32, ptr %210, align 8
  %212 = sdiv i32 %211, 1000
  %213 = mul i32 %212, 2
  %214 = sext i32 %213 to i64
  %215 = add i64 %207, %214
  store i64 %215, ptr %31, align 8
  %216 = load i64, ptr %31, align 8
  %217 = call i1 @llvm.is.constant.i64(i64 %216)
  br i1 %217, label %218, label %250

218:                                              ; preds = %198
  %219 = load i64, ptr %31, align 8
  %220 = and i64 %219, 255
  %221 = shl i64 %220, 56
  %222 = load i64, ptr %31, align 8
  %223 = and i64 %222, 65280
  %224 = shl i64 %223, 40
  %225 = or i64 %221, %224
  %226 = load i64, ptr %31, align 8
  %227 = and i64 %226, 16711680
  %228 = shl i64 %227, 24
  %229 = or i64 %225, %228
  %230 = load i64, ptr %31, align 8
  %231 = and i64 %230, 4278190080
  %232 = shl i64 %231, 8
  %233 = or i64 %229, %232
  %234 = load i64, ptr %31, align 8
  %235 = and i64 %234, 1095216660480
  %236 = lshr i64 %235, 8
  %237 = or i64 %233, %236
  %238 = load i64, ptr %31, align 8
  %239 = and i64 %238, 280375465082880
  %240 = lshr i64 %239, 24
  %241 = or i64 %237, %240
  %242 = load i64, ptr %31, align 8
  %243 = and i64 %242, 71776119061217280
  %244 = lshr i64 %243, 40
  %245 = or i64 %241, %244
  %246 = load i64, ptr %31, align 8
  %247 = and i64 %246, -72057594037927936
  %248 = lshr i64 %247, 56
  %249 = or i64 %245, %248
  store i64 %249, ptr %30, align 8
  br label %253

250:                                              ; preds = %198
  %251 = load i64, ptr %31, align 8
  %252 = call i64 asm "bswapq $0", "=r,0,~{dirflag},~{fpsr},~{flags}"(i64 %251) #19, !srcloc !18
  store i64 %252, ptr %30, align 8
  br label %253

253:                                              ; preds = %250, %218
  %254 = load i64, ptr %30, align 8
  store i64 %254, ptr %32, align 8
  call void @llvm.lifetime.end.p0(i64 8, ptr %31) #14
  call void @llvm.lifetime.end.p0(i64 8, ptr %30) #14
  %255 = load i64, ptr %32, align 8
  %256 = getelementptr inbounds nuw %struct.anon.4, ptr %15, i32 0, i32 6
  store i64 %255, ptr %256, align 8
  %257 = getelementptr inbounds nuw %struct.anon.4, ptr %15, i32 0, i32 7
  %258 = getelementptr inbounds [8128 x i8], ptr %257, i64 0, i64 0
  %259 = load ptr, ptr %9, align 8
  %260 = load ptr, ptr %8, align 8
  %261 = getelementptr inbounds nuw %struct.wtap_rec, ptr %260, i32 0, i32 7
  %262 = getelementptr inbounds nuw %struct.wtap_packet_header, ptr %261, i32 0, i32 0
  %263 = load i32, ptr %262, align 8
  %264 = zext i32 %263 to i64
  %265 = call ptr @memcpy.inline(ptr noundef %258, ptr noundef %259, i64 noundef %264) #14
  %266 = load ptr, ptr %7, align 8
  %267 = load i32, ptr %14, align 4
  %268 = getelementptr inbounds [8192 x i8], ptr %15, i64 0, i64 0
  %269 = load ptr, ptr %10, align 8
  %270 = call zeroext i1 @k12_dump_record(ptr noundef %266, i32 noundef %267, ptr noundef %268, ptr noundef %269)
  store i1 %270, ptr %6, align 1
  store i32 1, ptr %16, align 4
  br label %271

271:                                              ; preds = %253, %54, %43
  call void @llvm.lifetime.end.p0(i64 8192, ptr %15) #14
  call void @llvm.lifetime.end.p0(i64 4, ptr %14) #14
  call void @llvm.lifetime.end.p0(i64 8, ptr %13) #14
  call void @llvm.lifetime.end.p0(i64 8, ptr %12) #14
  %272 = load i1, ptr %6, align 1
  ret i1 %272
}