; Function Attrs: null_pointer_is_valid sspstrong uwtable
define internal noundef zeroext i1 @k12_dump(ptr noundef %0, ptr noundef readonly captures(none) %1, ptr noundef readonly captures(none) %2, ptr noundef %3, ptr readnone captures(none) %4) #0 {
  %6 = alloca %union.anon.3, align 8
  %7 = getelementptr inbounds nuw i8, ptr %1, i64 64
  %8 = getelementptr inbounds nuw i8, ptr %1, i64 80
  %9 = getelementptr inbounds nuw i8, ptr %0, i64 40
  %10 = load ptr, ptr %9, align 8
  call void @llvm.lifetime.start.p0(i64 8192, ptr nonnull %6) #11
  %11 = load i32, ptr %1, align 8
  %.not = icmp eq i32 %11, 0
  br i1 %.not, label %13, label %12

12:                                               ; preds = %5
  store i32 -24, ptr %3, align 4
  br label %58

13:                                               ; preds = %5
  %14 = getelementptr inbounds nuw i8, ptr %0, i64 16
  %15 = load i32, ptr %14, align 8
  %16 = getelementptr inbounds nuw i8, ptr %1, i64 72
  %17 = load i32, ptr %16, align 8
  %.not70 = icmp eq i32 %15, %17
  br i1 %.not70, label %19, label %18

18:                                               ; preds = %13
  store i32 -9, ptr %3, align 4
  br label %58

19:                                               ; preds = %13
  %20 = getelementptr inbounds nuw i8, ptr %10, i64 4
  %21 = load i32, ptr %20, align 4
  %22 = icmp eq i32 %21, 0
  br i1 %22, label %23, label %28

23:                                               ; preds = %19
  %24 = getelementptr inbounds nuw i8, ptr %1, i64 136
  %25 = load ptr, ptr %24, align 8
  %26 = getelementptr inbounds nuw i8, ptr %25, i64 8
  %27 = load ptr, ptr %26, align 8
  tail call void @g_hash_table_foreach(ptr noundef %27, ptr noundef nonnull @k12_dump_src_setting, ptr noundef %0)
  br label %28

28:                                               ; preds = %23, %19
  %29 = load i32, ptr %7, align 8
  %30 = add i32 %29, 32
  %31 = and i32 %29, 3
  %.not71 = icmp eq i32 %31, 0
  %32 = sub nuw nsw i32 4, %31
  %33 = select i1 %.not71, i32 0, i32 %32
  %34 = add i32 %30, %33
  %35 = tail call i32 asm "bswapl $0", "=r,0,~{dirflag},~{fpsr},~{flags}"(i32 %34) #14, !srcloc !12
  store i32 %35, ptr %6, align 8
  %36 = getelementptr inbounds nuw i8, ptr %6, i64 4
  store i32 536871168, ptr %36, align 4
  %37 = tail call i32 asm "bswapl $0", "=r,0,~{dirflag},~{fpsr},~{flags}"(i32 %29) #14, !srcloc !13
  %38 = getelementptr inbounds nuw i8, ptr %6, i64 8
  store i32 %37, ptr %38, align 8
  %39 = load i32, ptr %8, align 8
  %40 = tail call i32 asm "bswapl $0", "=r,0,~{dirflag},~{fpsr},~{flags}"(i32 %39) #14, !srcloc !14
  %41 = getelementptr inbounds nuw i8, ptr %6, i64 12
  store i32 %40, ptr %41, align 4
  %42 = getelementptr inbounds nuw i8, ptr %1, i64 16
  %43 = load i64, ptr %42, align 8
  %44 = mul i64 %43, 2000000
  %45 = add i64 %44, -1262304000000000
  %46 = getelementptr inbounds nuw i8, ptr %1, i64 24
  %47 = load i32, ptr %46, align 8
  %48 = sdiv i32 %47, 1000
  %49 = shl nsw i32 %48, 1
  %50 = sext i32 %49 to i64
  %51 = add i64 %45, %50
  %52 = tail call i64 asm "bswapq $0", "=r,0,~{dirflag},~{fpsr},~{flags}"(i64 %51) #14, !srcloc !15
  %53 = getelementptr inbounds nuw i8, ptr %6, i64 24
  store i64 %52, ptr %53, align 8
  %54 = getelementptr inbounds nuw i8, ptr %6, i64 32
  %55 = zext i32 %29 to i64
  %56 = call ptr @__memcpy_chk(ptr noundef nonnull %54, ptr noundef %2, i64 noundef range(i64 0, 4294967296) %55, i64 noundef 8160) #11, !alias.scope !16
  %57 = call fastcc zeroext i1 @k12_dump_record(ptr noundef %0, i32 noundef %34, ptr noundef nonnull %6, ptr noundef %3)
  br label %58

58:                                               ; preds = %28, %18, %12
  %.0 = phi i1 [ false, %12 ], [ false, %18 ], [ %57, %28 ]
  call void @llvm.lifetime.end.p0(i64 8192, ptr nonnull %6) #11
  ret i1 %.0
}